; Function Attrs: mustprogress uwtable
define void @_ZN5boost12read_graphmlERSiRNS_12mutate_graphEm(ptr noundef nonnull align 8 dereferenceable(16) %0, ptr noundef nonnull align 8 dereferenceable(8) %1, i64 noundef %2) local_unnamed_addr #0 personality ptr @__gxx_personality_v0 {
  %4 = alloca %"class.(anonymous namespace)::graphml_reader", align 8
  call void @llvm.lifetime.start.p0(i64 272, ptr nonnull %4) #26
  store ptr %1, ptr %4, align 8, !tbaa !3
  %5 = getelementptr inbounds i8, ptr %4, i64 16
  store i32 0, ptr %5, align 8, !tbaa !7
  %6 = getelementptr inbounds i8, ptr %4, i64 24
  store ptr null, ptr %6, align 8, !tbaa !12
  %7 = getelementptr inbounds i8, ptr %4, i64 32
  store ptr %5, ptr %7, align 8, !tbaa !13
  %8 = getelementptr inbounds i8, ptr %4, i64 40
  store ptr %5, ptr %8, align 8, !tbaa !14
  %9 = getelementptr inbounds i8, ptr %4, i64 48
  store i64 0, ptr %9, align 8, !tbaa !15
  %10 = getelementptr inbounds i8, ptr %4, i64 64
  store i32 0, ptr %10, align 8, !tbaa !7
  %11 = getelementptr inbounds i8, ptr %4, i64 72
  store ptr null, ptr %11, align 8, !tbaa !12
  %12 = getelementptr inbounds i8, ptr %4, i64 80
  store ptr %10, ptr %12, align 8, !tbaa !13
  %13 = getelementptr inbounds i8, ptr %4, i64 88
  store ptr %10, ptr %13, align 8, !tbaa !14
  %14 = getelementptr inbounds i8, ptr %4, i64 96
  store i64 0, ptr %14, align 8, !tbaa !15
  %15 = getelementptr inbounds i8, ptr %4, i64 112
  store i32 0, ptr %15, align 8, !tbaa !7
  %16 = getelementptr inbounds i8, ptr %4, i64 120
  store ptr null, ptr %16, align 8, !tbaa !12
  %17 = getelementptr inbounds i8, ptr %4, i64 128
  store ptr %15, ptr %17, align 8, !tbaa !13
  %18 = getelementptr inbounds i8, ptr %4, i64 136
  store ptr %15, ptr %18, align 8, !tbaa !14
  %19 = getelementptr inbounds i8, ptr %4, i64 144
  store i64 0, ptr %19, align 8, !tbaa !15
  %20 = getelementptr inbounds i8, ptr %4, i64 160
  store i32 0, ptr %20, align 8, !tbaa !7
  %21 = getelementptr inbounds i8, ptr %4, i64 168
  store ptr null, ptr %21, align 8, !tbaa !12
  %22 = getelementptr inbounds i8, ptr %4, i64 176
  store ptr %20, ptr %22, align 8, !tbaa !13
  %23 = getelementptr inbounds i8, ptr %4, i64 184
  store ptr %20, ptr %23, align 8, !tbaa !14
  %24 = getelementptr inbounds i8, ptr %4, i64 192
  store i64 0, ptr %24, align 8, !tbaa !15
  %25 = getelementptr inbounds i8, ptr %4, i64 208
  store i32 0, ptr %25, align 8, !tbaa !7
  %26 = getelementptr inbounds i8, ptr %4, i64 216
  store ptr null, ptr %26, align 8, !tbaa !12
  %27 = getelementptr inbounds i8, ptr %4, i64 224
  store ptr %25, ptr %27, align 8, !tbaa !13
  %28 = getelementptr inbounds i8, ptr %4, i64 232
  store ptr %25, ptr %28, align 8, !tbaa !14
  %29 = getelementptr inbounds i8, ptr %4, i64 240
  call void @llvm.memset.p0.i64(ptr noundef nonnull align 8 dereferenceable(32) %29, i8 0, i64 32, i1 false)
  invoke fastcc void @_ZN12_GLOBAL__N_114graphml_reader3runERSim(ptr noundef nonnull align 8 dereferenceable(272) %4, ptr noundef nonnull align 8 dereferenceable(16) %0, i64 noundef %2)
          to label %30 unwind label %31

30:                                               ; preds = %3
  call fastcc void @_ZN12_GLOBAL__N_114graphml_readerD2Ev(ptr noundef nonnull align 8 dereferenceable(272) %4) #26
  call void @llvm.lifetime.end.p0(i64 272, ptr nonnull %4) #26
  ret void

31:                                               ; preds = %3
  %32 = landingpad { ptr, i32 }
          cleanup
  call fastcc void @_ZN12_GLOBAL__N_114graphml_readerD2Ev(ptr noundef nonnull align 8 dereferenceable(272) %4) #26
  call void @llvm.lifetime.end.p0(i64 272, ptr nonnull %4) #26
  resume { ptr, i32 } %32
}